; Function Attrs: mustprogress nofree norecurse nosync nounwind willreturn memory(read, argmem: readwrite, inaccessiblemem: none) uwtable
define noundef signext i8 @_ZNK6icu_7521TimeArrayTimeZoneRule14getStartTimeAtEiRd(ptr nocapture noundef nonnull readonly align 8 dereferenceable(352) %this, i32 noundef %index, ptr nocapture noundef nonnull writeonly align 8 dereferenceable(8) %result) local_unnamed_addr #11 align 2 {
entry:
  %fNumStartTimes = getelementptr inbounds i8, ptr %this, i64 84
  %0 = load i32, ptr %fNumStartTimes, align 4
  %cmp = icmp sle i32 %0, %index
  %cmp2 = icmp slt i32 %index, 0
  %or.cond = or i1 %cmp2, %cmp
  br i1 %or.cond, label %return, label %if.end

if.end:                                           ; preds = %entry
  %fStartTimes = getelementptr inbounds i8, ptr %this, i64 88
  %1 = load ptr, ptr %fStartTimes, align 8
  %idxprom = zext nneg i32 %index to i64
  %arrayidx = getelementptr inbounds double, ptr %1, i64 %idxprom
  %2 = load double, ptr %arrayidx, align 8
  store double %2, ptr %result, align 8
  br label %return

return:                                           ; preds = %entry, %if.end
  %retval.0 = phi i8 [ 1, %if.end ], [ 0, %entry ]
  ret i8 %retval.0
}